; Function Attrs: mustprogress uwtable
define dso_local noundef zeroext i1 @_ZNK3dap4json19JsonCppDeserializer11deserializeEPNS_7integerE(ptr nocapture noundef nonnull readonly align 8 dereferenceable(17) %0, ptr nocapture noundef writeonly %1) unnamed_addr #0 align 2 {
  %3 = getelementptr inbounds i8, ptr %0, i64 8
  %4 = load ptr, ptr %3, align 8
  %5 = tail call noundef zeroext i1 @_ZNK4Json5Value7isInt64Ev(ptr noundef nonnull align 8 dereferenceable(40) %4)
  br i1 %5, label %6, label %9

6:                                                ; preds = %2
  %7 = load ptr, ptr %3, align 8
  %8 = tail call noundef i64 @_ZNK4Json5Value7asInt64Ev(ptr noundef nonnull align 8 dereferenceable(40) %7)
  store i64 %8, ptr %1, align 8
  br label %9

9:                                                ; preds = %2, %6
  ret i1 %5
}